target datalayout = "e-m:e-p270:32:32-p271:32:32-p272:64:64-i64:64-i128:128-f80:128-n8:16:32:64-S128"
target triple = "x86_64-pc-linux-gnu"

@.str.250 = private unnamed_addr constant [21 x i8] c"Performance Co-Pilot\00", align 1
@.str.251 = private unnamed_addr constant [4 x i8] c"PCP\00", align 1
@.str.252 = private unnamed_addr constant [4 x i8] c"pcp\00", align 1
@proto_pcp = internal global i32 0, align 4
@pcp_handle = internal global ptr null, align 8

; Function Attrs: null_pointer_is_valid sspstrong uwtable
define hidden void @proto_register_pcp() #0 {
  %1 = alloca ptr, align 8
  call void @llvm.lifetime.start.p0(i64 8, ptr %1) #8
  %2 = call i32 @proto_register_protocol(ptr noundef @.str.250, ptr noundef @.str.251, ptr noundef @.str.252)
  store i32 %2, ptr @proto_pcp, align 4
  %3 = load i32, ptr @proto_pcp, align 4
  %4 = call ptr @expert_register_protocol(i32 noundef %3)
  store ptr %4, ptr %1, align 8
  %5 = load ptr, ptr %1, align 8
  call void @expert_register_field_array(ptr noundef %5, ptr noundef @proto_register_pcp.ei, i32 noundef 9)
  %6 = load i32, ptr @proto_pcp, align 4
  call void @proto_register_field_array(i32 noundef %6, ptr noundef @proto_register_pcp.hf, i32 noundef 120)
  call void @proto_register_subtree_array(ptr noundef @proto_register_pcp.ett, i32 noundef 92)
  %7 = load i32, ptr @proto_pcp, align 4
  %8 = call ptr @register_dissector(ptr noundef @.str.252, ptr noundef @dissect_pcp, i32 noundef %7)
  store ptr %8, ptr @pcp_handle, align 8
  call void @llvm.lifetime.end.p0(i64 8, ptr %1) #8
  ret void
}